; Function Attrs: mustprogress uwtable
define hidden void @_ZN7datalog15rule_propertiesclEP10quantifier(ptr noundef nonnull align 8 dereferenceable(258) %0, ptr noundef %1) local_unnamed_addr #3 align 2 {
  %3 = alloca %"struct.obj_map<quantifier, datalog::rule *>::key_data", align 8
  %4 = getelementptr inbounds nuw i8, ptr %0, i64 184
  %5 = getelementptr inbounds nuw i8, ptr %0, i64 176
  call void @llvm.lifetime.start.p0(i64 16, ptr nonnull %3) #19
  store ptr %1, ptr %3, align 8, !tbaa !158
  %6 = getelementptr inbounds nuw i8, ptr %3, i64 8
  %7 = load ptr, ptr %5, align 8, !tbaa !79
  store ptr %7, ptr %6, align 8, !tbaa !156
  call void @_ZN14core_hashtableIN7obj_mapI10quantifierPN7datalog4ruleEE13obj_map_entryE8obj_hashINS5_8key_dataEE10default_eqIS8_EE6insertEOS8_(ptr noundef nonnull align 8 dereferenceable(24) %4, ptr noundef nonnull align 8 dereferenceable(16) %3)
  call void @llvm.lifetime.end.p0(i64 16, ptr nonnull %3) #19
  ret void
}